target datalayout = "e-m:e-p270:32:32-p271:32:32-p272:64:64-i64:64-i128:128-f80:128-n8:16:32:64-S128"
target triple = "x86_64-pc-linux-gnu"

%"class.std::vector" = type { %"struct.std::_Vector_base" }
%"struct.std::_Vector_base" = type { %"struct.std::_Vector_base<int, std::allocator<int>>::_Vector_impl" }
%"struct.std::_Vector_base<int, std::allocator<int>>::_Vector_impl" = type { %"struct.std::_Vector_base<int, std::allocator<int>>::_Vector_impl_data" }
%"struct.std::_Vector_base<int, std::allocator<int>>::_Vector_impl_data" = type { ptr, ptr, ptr }
%"class.gmx::ListOfLists" = type { %"class.std::vector", %"class.std::vector" }
%struct.t_graph = type <{ i32, i32, i32, i32, %"class.gmx::ListOfLists", i8, [7 x i8], %"class.std::vector.0", %"class.std::vector.5", i32, [4 x i8] }>
%"class.std::vector.0" = type { %"struct.std::_Vector_base.1" }
%"struct.std::_Vector_base.1" = type { %"struct.std::_Vector_base<gmx::BasicVector<int>, std::allocator<gmx::BasicVector<int>>>::_Vector_impl" }
%"struct.std::_Vector_base<gmx::BasicVector<int>, std::allocator<gmx::BasicVector<int>>>::_Vector_impl" = type { %"struct.std::_Vector_base<gmx::BasicVector<int>, std::allocator<gmx::BasicVector<int>>>::_Vector_impl_data" }
%"struct.std::_Vector_base<gmx::BasicVector<int>, std::allocator<gmx::BasicVector<int>>>::_Vector_impl_data" = type { ptr, ptr, ptr }
%"class.std::vector.5" = type { %"struct.std::_Vector_base.6" }
%"struct.std::_Vector_base.6" = type { %"struct.std::_Vector_base<egCol, std::allocator<egCol>>::_Vector_impl" }
%"struct.std::_Vector_base<egCol, std::allocator<egCol>>::_Vector_impl" = type { %"struct.std::_Vector_base<egCol, std::allocator<egCol>>::_Vector_impl_data" }
%"struct.std::_Vector_base<egCol, std::allocator<egCol>>::_Vector_impl_data" = type { ptr, ptr, ptr }
%"class.gmx::WholeMoleculeTransform" = type { i32, [4 x i8], %struct.t_graph, i32, %"class.gmx::ListOfLists", %"class.std::vector.10" }
%"class.std::vector.10" = type { %"struct.std::_Vector_base.11" }
%"struct.std::_Vector_base.11" = type { %"struct.std::_Vector_base<gmx::BasicVector<float>, std::allocator<gmx::BasicVector<float>>>::_Vector_impl" }
%"struct.std::_Vector_base<gmx::BasicVector<float>, std::allocator<gmx::BasicVector<float>>>::_Vector_impl" = type { %"struct.std::_Vector_base<gmx::BasicVector<float>, std::allocator<gmx::BasicVector<float>>>::_Vector_impl_data" }
%"struct.std::_Vector_base<gmx::BasicVector<float>, std::allocator<gmx::BasicVector<float>>>::_Vector_impl_data" = type { ptr, ptr, ptr }
%"class.gmx::BasicVector" = type { [3 x float] }
%"class.gmx::ArrayRef.78" = type { %"struct.gmx::ArrayRefIter.79", %"struct.gmx::ArrayRefIter.79" }
%"struct.gmx::ArrayRefIter.79" = type { ptr }

; Function Attrs: mustprogress nounwind uwtable
define linkonce_odr noundef i64 @_ZNKSt6vectorIN3gmx11BasicVectorIfEESaIS2_EE4sizeEv(ptr noundef nonnull align 8 dereferenceable(24) %0) #1 comdat align 2 {
  %2 = alloca ptr, align 8
  store ptr %0, ptr %2, align 8
  %3 = load ptr, ptr %2, align 8
  %4 = getelementptr inbounds %"struct.std::_Vector_base.11", ptr %3, i32 0, i32 0
  %5 = getelementptr inbounds %"struct.std::_Vector_base<gmx::BasicVector<float>, std::allocator<gmx::BasicVector<float>>>::_Vector_impl_data", ptr %4, i32 0, i32 1
  %6 = load ptr, ptr %5, align 8
  %7 = getelementptr inbounds %"struct.std::_Vector_base.11", ptr %3, i32 0, i32 0
  %8 = getelementptr inbounds %"struct.std::_Vector_base<gmx::BasicVector<float>, std::allocator<gmx::BasicVector<float>>>::_Vector_impl_data", ptr %7, i32 0, i32 0
  %9 = load ptr, ptr %8, align 8
  %10 = ptrtoint ptr %6 to i64
  %11 = ptrtoint ptr %9 to i64
  %12 = sub i64 %10, %11
  %13 = sdiv exact i64 %12, 12
  ret i64 %13
}

; Function Attrs: mustprogress nounwind uwtable
define linkonce_odr void @_ZN3gmx12ArrayRefIterIKNS_11BasicVectorIfEEEC2EPS3_(ptr noundef nonnull align 8 dereferenceable(8) %0, ptr noundef %1) unnamed_addr #1 comdat align 2 {
  %3 = alloca ptr, align 8
  %4 = alloca ptr, align 8
  store ptr %0, ptr %3, align 8
  store ptr %1, ptr %4, align 8
  %5 = load ptr, ptr %3, align 8
  %6 = getelementptr inbounds %"struct.gmx::ArrayRefIter.79", ptr %5, i32 0, i32 0
  %7 = load ptr, ptr %4, align 8
  store ptr %7, ptr %6, align 8
  ret void
}

; Function Attrs: mustprogress nounwind uwtable
define internal noundef ptr @_ZN3gmxL12as_vec_arrayIfEEPNS_11BasicVectorIT_E8RawArrayEPS3_(ptr noundef %0) #1 {
  %2 = alloca ptr, align 8
  store ptr %0, ptr %2, align 8
  %3 = load ptr, ptr %2, align 8
  ret ptr %3
}

; Function Attrs: mustprogress nounwind uwtable
define linkonce_odr noundef ptr @_ZNKSt6vectorIN3gmx11BasicVectorIfEESaIS2_EE11_M_data_ptrIS2_EEPT_S7_(ptr noundef nonnull align 8 dereferenceable(24) %0, ptr noundef %1) #1 comdat align 2 {
  %3 = alloca ptr, align 8
  %4 = alloca ptr, align 8
  store ptr %0, ptr %3, align 8
  store ptr %1, ptr %4, align 8
  %5 = load ptr, ptr %4, align 8
  ret ptr %5
}

; Function Attrs: mustprogress nounwind uwtable
define internal noundef ptr @_ZN3gmxL12as_vec_arrayIfEEPKNS_11BasicVectorIT_E8RawArrayEPKS3_(ptr noundef %0) #1 {
  %2 = alloca ptr, align 8
  store ptr %0, ptr %2, align 8
  %3 = load ptr, ptr %2, align 8
  ret ptr %3
}

; Function Attrs: mustprogress nounwind uwtable
define linkonce_odr noundef ptr @_ZNK3gmx12ArrayRefIterIKNS_11BasicVectorIfEEE4dataEv(ptr noundef nonnull align 8 dereferenceable(8) %0) #1 comdat align 2 {
  %2 = alloca ptr, align 8
  store ptr %0, ptr %2, align 8
  %3 = load ptr, ptr %2, align 8
  %4 = getelementptr inbounds %"struct.gmx::ArrayRefIter.79", ptr %3, i32 0, i32 0
  %5 = load ptr, ptr %4, align 8
  ret ptr %5
}

; Function Attrs: mustprogress nounwind uwtable
define linkonce_odr void @_ZN3gmx8ArrayRefIKNS_11BasicVectorIfEEEC2IRSt6vectorIS2_SaIS2_EEvEEOT_(ptr noundef nonnull align 8 dereferenceable(16) %0, ptr noundef nonnull align 8 dereferenceable(24) %1) unnamed_addr #1 comdat align 2 {
  %3 = alloca ptr, align 8
  %4 = alloca ptr, align 8
  store ptr %0, ptr %3, align 8
  store ptr %1, ptr %4, align 8
  %5 = load ptr, ptr %3, align 8
  %6 = getelementptr inbounds %"class.gmx::ArrayRef.78", ptr %5, i32 0, i32 0
  %7 = load ptr, ptr %4, align 8
  %8 = call noundef ptr @_ZNSt6vectorIN3gmx11BasicVectorIfEESaIS2_EE4dataEv(ptr noundef nonnull align 8 dereferenceable(24) %7) #9
  call void @_ZN3gmx12ArrayRefIterIKNS_11BasicVectorIfEEEC2EPS3_(ptr noundef nonnull align 8 dereferenceable(8) %6, ptr noundef %8) #9
  %9 = getelementptr inbounds %"class.gmx::ArrayRef.78", ptr %5, i32 0, i32 1
  %10 = load ptr, ptr %4, align 8
  %11 = call noundef ptr @_ZNSt6vectorIN3gmx11BasicVectorIfEESaIS2_EE4dataEv(ptr noundef nonnull align 8 dereferenceable(24) %10) #9
  %12 = load ptr, ptr %4, align 8
  %13 = call noundef i64 @_ZNKSt6vectorIN3gmx11BasicVectorIfEESaIS2_EE4sizeEv(ptr noundef nonnull align 8 dereferenceable(24) %12) #9
  %14 = getelementptr inbounds %"class.gmx::BasicVector", ptr %11, i64 %13
  call void @_ZN3gmx12ArrayRefIterIKNS_11BasicVectorIfEEEC2EPS3_(ptr noundef nonnull align 8 dereferenceable(8) %9, ptr noundef %14) #9
  ret void
}

; Function Attrs: mustprogress uwtable
define internal noundef ptr @_ZN3gmxL13as_rvec_arrayEPNS_11BasicVectorIfEE(ptr noundef %0) #0 {
  %2 = alloca ptr, align 8
  store ptr %0, ptr %2, align 8
  %3 = load ptr, ptr %2, align 8
  %4 = call noundef ptr @_ZN3gmxL12as_vec_arrayIfEEPNS_11BasicVectorIT_E8RawArrayEPS3_(ptr noundef %3)
  ret ptr %4
}

; Function Attrs: mustprogress nounwind uwtable
define linkonce_odr noundef ptr @_ZNSt6vectorIN3gmx11BasicVectorIfEESaIS2_EE4dataEv(ptr noundef nonnull align 8 dereferenceable(24) %0) #1 comdat align 2 {
  %2 = alloca ptr, align 8
  store ptr %0, ptr %2, align 8
  %3 = load ptr, ptr %2, align 8
  %4 = getelementptr inbounds %"struct.std::_Vector_base.11", ptr %3, i32 0, i32 0
  %5 = getelementptr inbounds %"struct.std::_Vector_base<gmx::BasicVector<float>, std::allocator<gmx::BasicVector<float>>>::_Vector_impl_data", ptr %4, i32 0, i32 0
  %6 = load ptr, ptr %5, align 8
  %7 = call noundef ptr @_ZNKSt6vectorIN3gmx11BasicVectorIfEESaIS2_EE11_M_data_ptrIS2_EEPT_S7_(ptr noundef nonnull align 8 dereferenceable(24) %3, ptr noundef %6) #9
  ret ptr %7
}

; Function Attrs: mustprogress uwtable
define internal noundef ptr @_ZN3gmxL13as_rvec_arrayEPKNS_11BasicVectorIfEE(ptr noundef %0) #0 {
  %2 = alloca ptr, align 8
  store ptr %0, ptr %2, align 8
  %3 = load ptr, ptr %2, align 8
  %4 = call noundef ptr @_ZN3gmxL12as_vec_arrayIfEEPKNS_11BasicVectorIT_E8RawArrayEPKS3_(ptr noundef %3)
  ret ptr %4
}

; Function Attrs: mustprogress nounwind uwtable
define linkonce_odr noundef ptr @_ZNK3gmx8ArrayRefIKNS_11BasicVectorIfEEE4dataEv(ptr noundef nonnull align 8 dereferenceable(16) %0) #1 comdat align 2 {
  %2 = alloca ptr, align 8
  store ptr %0, ptr %2, align 8
  %3 = load ptr, ptr %2, align 8
  %4 = getelementptr inbounds %"class.gmx::ArrayRef.78", ptr %3, i32 0, i32 0
  %5 = call noundef ptr @_ZNK3gmx12ArrayRefIterIKNS_11BasicVectorIfEEE4dataEv(ptr noundef nonnull align 8 dereferenceable(8) %4) #9
  ret ptr %5
}

; Function Attrs: mustprogress uwtable
define { ptr, ptr } @_ZN3gmx22WholeMoleculeTransform24wholeMoleculeCoordinatesENS_8ArrayRefIKNS_11BasicVectorIfEEEEPA3_Kf(ptr noundef nonnull align 8 dereferenceable(216) %0, ptr %1, ptr %2, ptr noundef %3) #0 align 2 {
  %5 = alloca %"class.gmx::ArrayRef.78", align 8
  %6 = alloca %"class.gmx::ArrayRef.78", align 8
  %7 = alloca ptr, align 8
  %8 = alloca ptr, align 8
  %9 = getelementptr inbounds { ptr, ptr }, ptr %6, i32 0, i32 0
  store ptr %1, ptr %9, align 8
  %10 = getelementptr inbounds { ptr, ptr }, ptr %6, i32 0, i32 1
  store ptr %2, ptr %10, align 8
  store ptr %0, ptr %7, align 8
  store ptr %3, ptr %8, align 8
  %11 = load ptr, ptr %7, align 8
  %12 = getelementptr inbounds %"class.gmx::WholeMoleculeTransform", ptr %11, i32 0, i32 2
  %13 = load ptr, ptr %8, align 8
  %14 = call noundef ptr @_ZNK3gmx8ArrayRefIKNS_11BasicVectorIfEEE4dataEv(ptr noundef nonnull align 8 dereferenceable(16) %6)
  %15 = call noundef ptr @_ZN3gmxL13as_rvec_arrayEPKNS_11BasicVectorIfEE(ptr noundef %14)
  %16 = getelementptr inbounds %"class.gmx::WholeMoleculeTransform", ptr %11, i32 0, i32 5
  %17 = call noundef ptr @_ZNSt6vectorIN3gmx11BasicVectorIfEESaIS2_EE4dataEv(ptr noundef nonnull align 8 dereferenceable(24) %16) #9
  %18 = call noundef ptr @_ZN3gmxL13as_rvec_arrayEPNS_11BasicVectorIfEE(ptr noundef %17)
  call void @_Z7shift_xPK7t_graphPA3_KfS4_PA3_f(ptr noundef %12, ptr noundef %13, ptr noundef %15, ptr noundef %18)
  %19 = getelementptr inbounds %"class.gmx::WholeMoleculeTransform", ptr %11, i32 0, i32 5
  call void @_ZN3gmx8ArrayRefIKNS_11BasicVectorIfEEEC2IRSt6vectorIS2_SaIS2_EEvEEOT_(ptr noundef nonnull align 8 dereferenceable(16) %5, ptr noundef nonnull align 8 dereferenceable(24) %19)
  %20 = load { ptr, ptr }, ptr %5, align 8
  ret { ptr, ptr } %20
}