; Function Attrs: mustprogress uwtable
define { ptr, ptr } @_ZN3gmx22WholeMoleculeTransform24wholeMoleculeCoordinatesENS_8ArrayRefIKNS_11BasicVectorIfEEEEPA3_Kf(ptr noundef nonnull align 8 dereferenceable(216) %0, ptr %1, ptr nocapture readnone %2, ptr noundef %3) local_unnamed_addr #0 align 2 {
  %5 = getelementptr inbounds i8, ptr %0, i64 8
  %6 = getelementptr inbounds i8, ptr %0, i64 192
  %7 = load ptr, ptr %6, align 8
  tail call void @_Z7shift_xPK7t_graphPA3_KfS4_PA3_f(ptr noundef nonnull %5, ptr noundef %3, ptr noundef %1, ptr noundef %7)
  %8 = load ptr, ptr %6, align 8
  %9 = getelementptr inbounds i8, ptr %0, i64 200
  %10 = load ptr, ptr %9, align 8
  %11 = ptrtoint ptr %10 to i64
  %12 = ptrtoint ptr %8 to i64
  %13 = sub i64 %11, %12
  %14 = getelementptr inbounds i8, ptr %8, i64 %13
  %.fca.0.insert = insertvalue { ptr, ptr } poison, ptr %8, 0
  %.fca.1.insert = insertvalue { ptr, ptr } %.fca.0.insert, ptr %14, 1
  ret { ptr, ptr } %.fca.1.insert
}